; Function Attrs: mustprogress uwtable
define void @_ZN32pxrInternal_v0_24__pxrReserved__47UsdImagingPiPrototypePropagatingSceneIndex_Impl18_InstancerObserverC2ERKSt10shared_ptrINS0_8_ContextEE(ptr noundef nonnull align 8 dereferenceable(112) %0, ptr nocapture noundef nonnull readonly align 8 dereferenceable(16) %1) unnamed_addr #0 align 2 personality ptr @__gxx_personality_v0 {
  %3 = alloca %"class.pxrInternal_v0_24__pxrReserved__::SdfPath", align 8
  store i64 0, ptr %3, align 8
  %4 = invoke noundef nonnull align 4 dereferenceable(8) ptr @_ZN32pxrInternal_v0_24__pxrReserved__7SdfPath16AbsoluteRootPathEv()
          to label %5 unwind label %27

5:                                                ; preds = %2
  %6 = invoke noundef nonnull align 4 dereferenceable(8) ptr @_ZN32pxrInternal_v0_24__pxrReserved__7SdfPath16AbsoluteRootPathEv()
          to label %7 unwind label %27

7:                                                ; preds = %5
  invoke void @_ZN32pxrInternal_v0_24__pxrReserved__47UsdImagingPiPrototypePropagatingSceneIndex_Impl18_InstancerObserverC2ERKSt10shared_ptrINS0_8_ContextEERKNS_7SdfPathES9_S9_(ptr noundef nonnull align 8 dereferenceable(112) %0, ptr noundef nonnull align 8 dereferenceable(16) %1, ptr noundef nonnull align 4 dereferenceable(8) %3, ptr noundef nonnull align 4 dereferenceable(8) %4, ptr noundef nonnull align 4 dereferenceable(8) %6)
          to label %8 unwind label %27

8:                                                ; preds = %7
  %9 = load i32, ptr %3, align 8
  %.not.i.i = icmp eq i32 %9, 0
  br i1 %.not.i.i, label %_ZN32pxrInternal_v0_24__pxrReserved__7SdfPathD2Ev.exit, label %10

10:                                               ; preds = %8
  %11 = and i32 %9, 255
  %12 = lshr i32 %9, 8
  %13 = zext nneg i32 %11 to i64
  %14 = getelementptr inbounds [257 x ptr], ptr @_ZN32pxrInternal_v0_24__pxrReserved__8Sdf_PoolINS_15Sdf_PathPrimTagELj24ELj8ELj16384EE13_regionStartsE, i64 0, i64 %13
  %15 = load ptr, ptr %14, align 8
  %16 = mul nuw nsw i32 %12, 24
  %17 = zext nneg i32 %16 to i64
  %18 = getelementptr inbounds i8, ptr %15, i64 %17
  %19 = getelementptr inbounds nuw i8, ptr %18, i64 8
  %20 = atomicrmw sub ptr %19, i32 1 seq_cst, align 4
  %21 = and i32 %20, 2147483647
  %22 = icmp eq i32 %21, 1
  br i1 %22, label %23, label %_ZN32pxrInternal_v0_24__pxrReserved__7SdfPathD2Ev.exit

23:                                               ; preds = %10
  invoke void @_ZNK32pxrInternal_v0_24__pxrReserved__12Sdf_PathNode8_DestroyEv(ptr noundef nonnull align 8 dereferenceable(16) %18)
          to label %_ZN32pxrInternal_v0_24__pxrReserved__7SdfPathD2Ev.exit unwind label %24

24:                                               ; preds = %23
  %25 = landingpad { ptr, i32 }
          catch ptr null
  %26 = extractvalue { ptr, i32 } %25, 0
  call void @__clang_call_terminate(ptr %26) #27
  unreachable

_ZN32pxrInternal_v0_24__pxrReserved__7SdfPathD2Ev.exit: ; preds = %8, %10, %23
  ret void

27:                                               ; preds = %7, %5, %2
  %28 = landingpad { ptr, i32 }
          cleanup
  call void @_ZN32pxrInternal_v0_24__pxrReserved__7SdfPathD2Ev(ptr noundef nonnull align 4 dereferenceable(8) %3) #23
  resume { ptr, i32 } %28
}